target datalayout = "e-m:e-p270:32:32-p271:32:32-p272:64:64-i64:64-i128:128-f80:128-n8:16:32:64-S128"
target triple = "x86_64-pc-linux-gnu"

; Function Attrs: nounwind uwtable
define internal void @SubtractGreenFromBlueAndRed_SSE41(ptr noundef %0, i32 noundef %1) #1 {
  %3 = alloca ptr, align 8
  %4 = alloca <2 x i64>, align 16
  %5 = alloca <2 x i64>, align 16
  %6 = alloca <2 x i64>, align 16
  %7 = alloca <2 x i64>, align 16
  %8 = alloca <2 x i64>, align 16
  %9 = alloca i8, align 1
  %10 = alloca i8, align 1
  %11 = alloca i8, align 1
  %12 = alloca i8, align 1
  %13 = alloca i8, align 1
  %14 = alloca i8, align 1
  %15 = alloca i8, align 1
  %16 = alloca i8, align 1
  %17 = alloca i8, align 1
  %18 = alloca i8, align 1
  %19 = alloca i8, align 1
  %20 = alloca i8, align 1
  %21 = alloca i8, align 1
  %22 = alloca i8, align 1
  %23 = alloca i8, align 1
  %24 = alloca i8, align 1
  %25 = alloca <16 x i8>, align 16
  %26 = alloca ptr, align 8
  %27 = alloca ptr, align 8
  %28 = alloca i32, align 4
  %29 = alloca i32, align 4
  %30 = alloca <2 x i64>, align 16
  %31 = alloca <2 x i64>, align 16
  %32 = alloca <2 x i64>, align 16
  %33 = alloca <2 x i64>, align 16
  store ptr %0, ptr %27, align 8
  store i32 %1, ptr %28, align 4
  store i8 -1, ptr %9, align 1
  store i8 13, ptr %10, align 1
  store i8 -1, ptr %11, align 1
  store i8 13, ptr %12, align 1
  store i8 -1, ptr %13, align 1
  store i8 9, ptr %14, align 1
  store i8 -1, ptr %15, align 1
  store i8 9, ptr %16, align 1
  store i8 -1, ptr %17, align 1
  store i8 5, ptr %18, align 1
  store i8 -1, ptr %19, align 1
  store i8 5, ptr %20, align 1
  store i8 -1, ptr %21, align 1
  store i8 1, ptr %22, align 1
  store i8 -1, ptr %23, align 1
  store i8 1, ptr %24, align 1
  %34 = load i8, ptr %24, align 1
  %35 = insertelement <16 x i8> poison, i8 %34, i32 0
  %36 = load i8, ptr %23, align 1
  %37 = insertelement <16 x i8> %35, i8 %36, i32 1
  %38 = load i8, ptr %22, align 1
  %39 = insertelement <16 x i8> %37, i8 %38, i32 2
  %40 = load i8, ptr %21, align 1
  %41 = insertelement <16 x i8> %39, i8 %40, i32 3
  %42 = load i8, ptr %20, align 1
  %43 = insertelement <16 x i8> %41, i8 %42, i32 4
  %44 = load i8, ptr %19, align 1
  %45 = insertelement <16 x i8> %43, i8 %44, i32 5
  %46 = load i8, ptr %18, align 1
  %47 = insertelement <16 x i8> %45, i8 %46, i32 6
  %48 = load i8, ptr %17, align 1
  %49 = insertelement <16 x i8> %47, i8 %48, i32 7
  %50 = load i8, ptr %16, align 1
  %51 = insertelement <16 x i8> %49, i8 %50, i32 8
  %52 = load i8, ptr %15, align 1
  %53 = insertelement <16 x i8> %51, i8 %52, i32 9
  %54 = load i8, ptr %14, align 1
  %55 = insertelement <16 x i8> %53, i8 %54, i32 10
  %56 = load i8, ptr %13, align 1
  %57 = insertelement <16 x i8> %55, i8 %56, i32 11
  %58 = load i8, ptr %12, align 1
  %59 = insertelement <16 x i8> %57, i8 %58, i32 12
  %60 = load i8, ptr %11, align 1
  %61 = insertelement <16 x i8> %59, i8 %60, i32 13
  %62 = load i8, ptr %10, align 1
  %63 = insertelement <16 x i8> %61, i8 %62, i32 14
  %64 = load i8, ptr %9, align 1
  %65 = insertelement <16 x i8> %63, i8 %64, i32 15
  store <16 x i8> %65, ptr %25, align 16
  %66 = load <16 x i8>, ptr %25, align 16
  %67 = bitcast <16 x i8> %66 to <2 x i64>
  store <2 x i64> %67, ptr %30, align 16
  store i32 0, ptr %29, align 4
  br label %68

68:                                               ; preds = %103, %2
  %69 = load i32, ptr %29, align 4
  %70 = add nsw i32 %69, 4
  %71 = load i32, ptr %28, align 4
  %72 = icmp sle i32 %70, %71
  br i1 %72, label %73, label %106

73:                                               ; preds = %68
  %74 = load ptr, ptr %27, align 8
  %75 = load i32, ptr %29, align 4
  %76 = sext i32 %75 to i64
  %77 = getelementptr inbounds i32, ptr %74, i64 %76
  store ptr %77, ptr %26, align 8
  %78 = load ptr, ptr %26, align 8
  %79 = load <2 x i64>, ptr %78, align 1
  store <2 x i64> %79, ptr %31, align 16
  %80 = load <2 x i64>, ptr %31, align 16
  %81 = load <2 x i64>, ptr %30, align 16
  store <2 x i64> %80, ptr %7, align 16
  store <2 x i64> %81, ptr %8, align 16
  %82 = load <2 x i64>, ptr %7, align 16
  %83 = bitcast <2 x i64> %82 to <16 x i8>
  %84 = load <2 x i64>, ptr %8, align 16
  %85 = bitcast <2 x i64> %84 to <16 x i8>
  %86 = call <16 x i8> @llvm.x86.ssse3.pshuf.b.128(<16 x i8> %83, <16 x i8> %85)
  %87 = bitcast <16 x i8> %86 to <2 x i64>
  store <2 x i64> %87, ptr %32, align 16
  %88 = load <2 x i64>, ptr %31, align 16
  %89 = load <2 x i64>, ptr %32, align 16
  store <2 x i64> %88, ptr %5, align 16
  store <2 x i64> %89, ptr %6, align 16
  %90 = load <2 x i64>, ptr %5, align 16
  %91 = bitcast <2 x i64> %90 to <16 x i8>
  %92 = load <2 x i64>, ptr %6, align 16
  %93 = bitcast <2 x i64> %92 to <16 x i8>
  %94 = sub <16 x i8> %91, %93
  %95 = bitcast <16 x i8> %94 to <2 x i64>
  store <2 x i64> %95, ptr %33, align 16
  %96 = load ptr, ptr %27, align 8
  %97 = load i32, ptr %29, align 4
  %98 = sext i32 %97 to i64
  %99 = getelementptr inbounds i32, ptr %96, i64 %98
  %100 = load <2 x i64>, ptr %33, align 16
  store ptr %99, ptr %3, align 8
  store <2 x i64> %100, ptr %4, align 16
  %101 = load <2 x i64>, ptr %4, align 16
  %102 = load ptr, ptr %3, align 8
  store <2 x i64> %101, ptr %102, align 1
  br label %103

103:                                              ; preds = %73
  %104 = load i32, ptr %29, align 4
  %105 = add nsw i32 %104, 4
  store i32 %105, ptr %29, align 4
  br label %68, !llvm.loop !7

106:                                              ; preds = %68
  %107 = load i32, ptr %29, align 4
  %108 = load i32, ptr %28, align 4
  %109 = icmp ne i32 %107, %108
  br i1 %109, label %110, label %118

110:                                              ; preds = %106
  %111 = load ptr, ptr %27, align 8
  %112 = load i32, ptr %29, align 4
  %113 = sext i32 %112 to i64
  %114 = getelementptr inbounds i32, ptr %111, i64 %113
  %115 = load i32, ptr %28, align 4
  %116 = load i32, ptr %29, align 4
  %117 = sub nsw i32 %115, %116
  call void @VP8LSubtractGreenFromBlueAndRed_C(ptr noundef %114, i32 noundef %117)
  br label %118

118:                                              ; preds = %110, %106
  ret void
}