; Function Attrs: nounwind uwtable
define internal void @SubtractGreenFromBlueAndRed_SSE41(ptr noundef %0, i32 noundef %1) #2 {
  %.not44 = icmp slt i32 %1, 4
  br i1 %.not44, label %._crit_edge, label %.lr.ph.preheader

.lr.ph.preheader:                                 ; preds = %2
  %3 = zext nneg i32 %1 to i64
  br label %.lr.ph

.lr.ph:                                           ; preds = %.lr.ph.preheader, %.lr.ph
  %indvars.iv46 = phi i64 [ 0, %.lr.ph.preheader ], [ %indvars.iv.next47, %.lr.ph ]
  %indvars.iv = phi i64 [ 4, %.lr.ph.preheader ], [ %indvars.iv.next, %.lr.ph ]
  %4 = getelementptr inbounds i32, ptr %0, i64 %indvars.iv46
  %5 = load <16 x i8>, ptr %4, align 1
  %6 = shufflevector <16 x i8> %5, <16 x i8> <i8 0, i8 poison, i8 poison, i8 poison, i8 poison, i8 poison, i8 poison, i8 poison, i8 poison, i8 poison, i8 poison, i8 poison, i8 poison, i8 poison, i8 poison, i8 poison>, <16 x i32> <i32 1, i32 16, i32 1, i32 16, i32 5, i32 16, i32 5, i32 16, i32 9, i32 16, i32 9, i32 16, i32 13, i32 16, i32 13, i32 16>
  %7 = sub <16 x i8> %5, %6
  store <16 x i8> %7, ptr %4, align 1
  %indvars.iv.next = add nuw nsw i64 %indvars.iv, 4
  %.not = icmp ugt i64 %indvars.iv.next, %3
  %indvars.iv.next47 = add nuw nsw i64 %indvars.iv46, 4
  br i1 %.not, label %._crit_edge.loopexit, label %.lr.ph, !llvm.loop !7

._crit_edge.loopexit:                             ; preds = %.lr.ph
  %8 = trunc nuw nsw i64 %indvars.iv to i32
  br label %._crit_edge

._crit_edge:                                      ; preds = %._crit_edge.loopexit, %2
  %.0.lcssa = phi i32 [ 0, %2 ], [ %8, %._crit_edge.loopexit ]
  %.not43 = icmp eq i32 %.0.lcssa, %1
  br i1 %.not43, label %13, label %9

9:                                                ; preds = %._crit_edge
  %10 = zext nneg i32 %.0.lcssa to i64
  %11 = getelementptr inbounds i32, ptr %0, i64 %10
  %12 = sub nsw i32 %1, %.0.lcssa
  tail call void @VP8LSubtractGreenFromBlueAndRed_C(ptr noundef %11, i32 noundef %12) #5
  br label %13

13:                                               ; preds = %9, %._crit_edge
  ret void
}